target datalayout = "e-m:e-p270:32:32-p271:32:32-p272:64:64-i64:64-i128:128-f80:128-n8:16:32:64-S128"
target triple = "x86_64-pc-linux-gnu"

%struct.lbttcp_tag_entry_t = type { ptr, i32, i32, i32, i32, i32, i32 }

; Function Attrs: null_pointer_is_valid sspstrong uwtable
define internal void @lbttcp_tag_free_cb(ptr noundef %0) #0 {
  %2 = alloca ptr, align 8
  %3 = alloca ptr, align 8
  store ptr %0, ptr %2, align 8
  call void @llvm.lifetime.start.p0(i64 8, ptr %3) #9
  %4 = load ptr, ptr %2, align 8
  store ptr %4, ptr %3, align 8
  %5 = load ptr, ptr %3, align 8
  %6 = getelementptr inbounds nuw %struct.lbttcp_tag_entry_t, ptr %5, i32 0, i32 0
  %7 = load ptr, ptr %6, align 8
  %8 = icmp ne ptr %7, null
  br i1 %8, label %9, label %15

9:                                                ; preds = %1
  %10 = load ptr, ptr %3, align 8
  %11 = getelementptr inbounds nuw %struct.lbttcp_tag_entry_t, ptr %10, i32 0, i32 0
  %12 = load ptr, ptr %11, align 8
  call void @g_free(ptr noundef %12)
  %13 = load ptr, ptr %3, align 8
  %14 = getelementptr inbounds nuw %struct.lbttcp_tag_entry_t, ptr %13, i32 0, i32 0
  store ptr null, ptr %14, align 8
  br label %15

15:                                               ; preds = %9, %1
  call void @llvm.lifetime.end.p0(i64 8, ptr %3) #9
  ret void
}