; Function Attrs: null_pointer_is_valid sspstrong uwtable
define internal void @lbttcp_tag_free_cb(ptr noundef captures(none) %0) #0 {
  %2 = load ptr, ptr %0, align 8
  %.not = icmp eq ptr %2, null
  br i1 %.not, label %4, label %3

3:                                                ; preds = %1
  tail call void @g_free(ptr noundef nonnull %2)
  store ptr null, ptr %0, align 8
  br label %4

4:                                                ; preds = %3, %1
  ret void
}